target datalayout = "e-m:e-p270:32:32-p271:32:32-p272:64:64-i64:64-i128:128-f80:128-n8:16:32:64-S128"
target triple = "x86_64-pc-linux-gnu"

%struct.PJconsts = type { ptr, ptr, ptr, ptr, ptr, ptr, ptr, ptr, ptr, ptr, ptr, ptr, i32, ptr, ptr, ptr, ptr, ptr, ptr, ptr, ptr, double, double, double, double, double, double, double, double, double, double, double, double, double, double, double, double, double, double, double, double, double, double, i32, i32, i32, i32, i32, i32, i32, i32, i32, i32, i32, ptr, ptr, ptr, ptr, ptr, ptr, double, double, double, double, double, double, double, double, double, double, double, i32, [7 x double], i32, ptr, ptr, double, double, i32, [4 x i8], %"class.std::shared_ptr", i8, double, i8, %"class.std::__cxx11::basic_string", %"class.std::__cxx11::basic_string", %"class.std::__cxx11::basic_string", i8, %"class.std::vector", i32, %"class.std::vector.3", i32, i8, i8, i8, ptr }
%"class.std::shared_ptr" = type { %"class.std::__shared_ptr" }
%"class.std::__shared_ptr" = type { ptr, %"class.std::__shared_count" }
%"class.std::__shared_count" = type { ptr }
%"class.std::__cxx11::basic_string" = type { %"struct.std::__cxx11::basic_string<char>::_Alloc_hider", i64, %union.anon }
%"struct.std::__cxx11::basic_string<char>::_Alloc_hider" = type { ptr }
%union.anon = type { i64, [8 x i8] }
%"class.std::vector" = type { %"struct.std::_Vector_base" }
%"struct.std::_Vector_base" = type { %"struct.std::_Vector_base<osgeo::proj::operation::GridDescription, std::allocator<osgeo::proj::operation::GridDescription>>::_Vector_impl" }
%"struct.std::_Vector_base<osgeo::proj::operation::GridDescription, std::allocator<osgeo::proj::operation::GridDescription>>::_Vector_impl" = type { %"struct.std::_Vector_base<osgeo::proj::operation::GridDescription, std::allocator<osgeo::proj::operation::GridDescription>>::_Vector_impl_data" }
%"struct.std::_Vector_base<osgeo::proj::operation::GridDescription, std::allocator<osgeo::proj::operation::GridDescription>>::_Vector_impl_data" = type { ptr, ptr, ptr }
%"class.std::vector.3" = type { %"struct.std::_Vector_base.4" }
%"struct.std::_Vector_base.4" = type { %"struct.std::_Vector_base<PJCoordOperation, std::allocator<PJCoordOperation>>::_Vector_impl" }
%"struct.std::_Vector_base<PJCoordOperation, std::allocator<PJCoordOperation>>::_Vector_impl" = type { %"struct.std::_Vector_base<PJCoordOperation, std::allocator<PJCoordOperation>>::_Vector_impl_data" }
%"struct.std::_Vector_base<PJCoordOperation, std::allocator<PJCoordOperation>>::_Vector_impl_data" = type { ptr, ptr, ptr }
%"struct.(anonymous namespace)::pj_spilhaus_data" = type { double, double, double, double, double, double, double, ptr }
%struct.PJ_XY = type { double, double }
%struct.PJ_LP = type { double, double }

; Function Attrs: mustprogress uwtable
define internal { double, double } @_ZL16spilhaus_forward5PJ_LPP8PJconsts(double %0, double %1, ptr noundef %2) #0 {
  %4 = alloca %struct.PJ_XY, align 8
  %5 = alloca %struct.PJ_LP, align 8
  %6 = alloca ptr, align 8
  %7 = alloca ptr, align 8
  %8 = alloca double, align 8
  %9 = alloca double, align 8
  %10 = alloca double, align 8
  %11 = alloca double, align 8
  %12 = alloca double, align 8
  %13 = alloca %struct.PJ_LP, align 8
  %14 = alloca %struct.PJ_XY, align 8
  %15 = alloca %struct.PJ_LP, align 8
  %16 = alloca double, align 8
  %17 = getelementptr inbounds nuw { double, double }, ptr %5, i32 0, i32 0
  store double %0, ptr %17, align 8
  %18 = getelementptr inbounds nuw { double, double }, ptr %5, i32 0, i32 1
  store double %1, ptr %18, align 8
  store ptr %2, ptr %6, align 8, !tbaa !3
  call void @llvm.memset.p0.i64(ptr align 8 %4, i8 0, i64 16, i1 false)
  call void @llvm.lifetime.start.p0(i64 8, ptr %7) #15
  %19 = load ptr, ptr %6, align 8, !tbaa !3
  %20 = getelementptr inbounds nuw %struct.PJconsts, ptr %19, i32 0, i32 11
  %21 = load ptr, ptr %20, align 8, !tbaa !43
  store ptr %21, ptr %7, align 8, !tbaa !41
  call void @llvm.lifetime.start.p0(i64 8, ptr %8) #15
  %22 = getelementptr inbounds nuw %struct.PJ_LP, ptr %5, i32 0, i32 1
  %23 = load double, ptr %22, align 8, !tbaa !76
  %24 = load ptr, ptr %6, align 8, !tbaa !3
  %25 = getelementptr inbounds nuw %struct.PJconsts, ptr %24, i32 0, i32 26
  %26 = load double, ptr %25, align 8, !tbaa !48
  %27 = call noundef double @_Z16pj_conformal_latdd(double noundef %23, double noundef %26)
  store double %27, ptr %8, align 8, !tbaa !56
  call void @llvm.lifetime.start.p0(i64 8, ptr %9) #15
  %28 = load double, ptr %8, align 8, !tbaa !56
  %29 = call double @cos(double noundef %28) #15, !tbaa !57
  store double %29, ptr %9, align 8, !tbaa !56
  call void @llvm.lifetime.start.p0(i64 8, ptr %10) #15
  %30 = load double, ptr %8, align 8, !tbaa !56
  %31 = call double @sin(double noundef %30) #15, !tbaa !57
  store double %31, ptr %10, align 8, !tbaa !56
  call void @llvm.lifetime.start.p0(i64 8, ptr %11) #15
  %32 = getelementptr inbounds nuw %struct.PJ_LP, ptr %5, i32 0, i32 0
  %33 = load double, ptr %32, align 8, !tbaa !78
  %34 = load ptr, ptr %7, align 8, !tbaa !41
  %35 = getelementptr inbounds nuw %"struct.(anonymous namespace)::pj_spilhaus_data", ptr %34, i32 0, i32 3
  %36 = load double, ptr %35, align 8, !tbaa !62
  %37 = fsub double %33, %36
  %38 = call double @cos(double noundef %37) #15, !tbaa !57
  store double %38, ptr %11, align 8, !tbaa !56
  call void @llvm.lifetime.start.p0(i64 8, ptr %12) #15
  %39 = getelementptr inbounds nuw %struct.PJ_LP, ptr %5, i32 0, i32 0
  %40 = load double, ptr %39, align 8, !tbaa !78
  %41 = load ptr, ptr %7, align 8, !tbaa !41
  %42 = getelementptr inbounds nuw %"struct.(anonymous namespace)::pj_spilhaus_data", ptr %41, i32 0, i32 3
  %43 = load double, ptr %42, align 8, !tbaa !62
  %44 = fsub double %40, %43
  %45 = call double @sin(double noundef %44) #15, !tbaa !57
  store double %45, ptr %12, align 8, !tbaa !56
  call void @llvm.lifetime.start.p0(i64 16, ptr %13) #15
  %46 = load ptr, ptr %6, align 8, !tbaa !3
  %47 = getelementptr inbounds nuw %struct.PJconsts, ptr %46, i32 0, i32 0
  %48 = load ptr, ptr %47, align 8, !tbaa !47
  %49 = load ptr, ptr %7, align 8, !tbaa !41
  %50 = getelementptr inbounds nuw %"struct.(anonymous namespace)::pj_spilhaus_data", ptr %49, i32 0, i32 1
  %51 = load double, ptr %50, align 8, !tbaa !60
  %52 = load double, ptr %10, align 8, !tbaa !56
  %53 = load ptr, ptr %7, align 8, !tbaa !41
  %54 = getelementptr inbounds nuw %"struct.(anonymous namespace)::pj_spilhaus_data", ptr %53, i32 0, i32 0
  %55 = load double, ptr %54, align 8, !tbaa !61
  %56 = load double, ptr %9, align 8, !tbaa !56
  %57 = fmul double %55, %56
  %58 = load double, ptr %11, align 8, !tbaa !56
  %59 = fmul double %57, %58
  %60 = fneg double %59
  %61 = call double @llvm.fmuladd.f64(double %51, double %52, double %60)
  %62 = call noundef double @_Z5aasinP6pj_ctxd(ptr noundef %48, double noundef %61)
  %63 = getelementptr inbounds nuw %struct.PJ_LP, ptr %13, i32 0, i32 1
  store double %62, ptr %63, align 8, !tbaa !76
  %64 = load ptr, ptr %7, align 8, !tbaa !41
  %65 = getelementptr inbounds nuw %"struct.(anonymous namespace)::pj_spilhaus_data", ptr %64, i32 0, i32 2
  %66 = load double, ptr %65, align 8, !tbaa !63
  %67 = load double, ptr %9, align 8, !tbaa !56
  %68 = load double, ptr %12, align 8, !tbaa !56
  %69 = fmul double %67, %68
  %70 = load ptr, ptr %7, align 8, !tbaa !41
  %71 = getelementptr inbounds nuw %"struct.(anonymous namespace)::pj_spilhaus_data", ptr %70, i32 0, i32 1
  %72 = load double, ptr %71, align 8, !tbaa !60
  %73 = load double, ptr %9, align 8, !tbaa !56
  %74 = fmul double %72, %73
  %75 = load double, ptr %11, align 8, !tbaa !56
  %76 = load ptr, ptr %7, align 8, !tbaa !41
  %77 = getelementptr inbounds nuw %"struct.(anonymous namespace)::pj_spilhaus_data", ptr %76, i32 0, i32 0
  %78 = load double, ptr %77, align 8, !tbaa !61
  %79 = load double, ptr %10, align 8, !tbaa !56
  %80 = fmul double %78, %79
  %81 = call double @llvm.fmuladd.f64(double %74, double %75, double %80)
  %82 = call double @atan2(double noundef %69, double noundef %81) #15, !tbaa !57
  %83 = fadd double %66, %82
  %84 = getelementptr inbounds nuw %struct.PJ_LP, ptr %13, i32 0, i32 0
  store double %83, ptr %84, align 8, !tbaa !78
  br label %85

85:                                               ; preds = %89, %3
  %86 = getelementptr inbounds nuw %struct.PJ_LP, ptr %13, i32 0, i32 0
  %87 = load double, ptr %86, align 8, !tbaa !78
  %88 = fcmp ogt double %87, 0x400921FB54442D18
  br i1 %88, label %89, label %93

89:                                               ; preds = %85
  %90 = getelementptr inbounds nuw %struct.PJ_LP, ptr %13, i32 0, i32 0
  %91 = load double, ptr %90, align 8, !tbaa !78
  %92 = fsub double %91, 0x401921FB54442D18
  store double %92, ptr %90, align 8, !tbaa !78
  br label %85, !llvm.loop !79

93:                                               ; preds = %85
  br label %94

94:                                               ; preds = %98, %93
  %95 = getelementptr inbounds nuw %struct.PJ_LP, ptr %13, i32 0, i32 0
  %96 = load double, ptr %95, align 8, !tbaa !78
  %97 = fcmp olt double %96, 0xC00921FB54442D18
  br i1 %97, label %98, label %102

98:                                               ; preds = %94
  %99 = getelementptr inbounds nuw %struct.PJ_LP, ptr %13, i32 0, i32 0
  %100 = load double, ptr %99, align 8, !tbaa !78
  %101 = fadd double %100, 0x401921FB54442D18
  store double %101, ptr %99, align 8, !tbaa !78
  br label %94, !llvm.loop !81

102:                                              ; preds = %94
  call void @llvm.lifetime.start.p0(i64 16, ptr %14) #15
  %103 = load ptr, ptr %7, align 8, !tbaa !41
  %104 = getelementptr inbounds nuw %"struct.(anonymous namespace)::pj_spilhaus_data", ptr %103, i32 0, i32 7
  %105 = load ptr, ptr %104, align 8, !tbaa !45
  %106 = getelementptr inbounds nuw %struct.PJconsts, ptr %105, i32 0, i32 13
  %107 = load ptr, ptr %106, align 8, !tbaa !66
  call void @llvm.memcpy.p0.p0.i64(ptr align 8 %15, ptr align 8 %13, i64 16, i1 false), !tbaa.struct !82
  %108 = load ptr, ptr %7, align 8, !tbaa !41
  %109 = getelementptr inbounds nuw %"struct.(anonymous namespace)::pj_spilhaus_data", ptr %108, i32 0, i32 7
  %110 = load ptr, ptr %109, align 8, !tbaa !45
  %111 = getelementptr inbounds nuw { double, double }, ptr %15, i32 0, i32 0
  %112 = load double, ptr %111, align 8
  %113 = getelementptr inbounds nuw { double, double }, ptr %15, i32 0, i32 1
  %114 = load double, ptr %113, align 8
  %115 = call { double, double } %107(double %112, double %114, ptr noundef %110)
  %116 = getelementptr inbounds nuw { double, double }, ptr %14, i32 0, i32 0
  %117 = extractvalue { double, double } %115, 0
  store double %117, ptr %116, align 8
  %118 = getelementptr inbounds nuw { double, double }, ptr %14, i32 0, i32 1
  %119 = extractvalue { double, double } %115, 1
  store double %119, ptr %118, align 8
  call void @llvm.lifetime.start.p0(i64 8, ptr %16) #15
  %120 = load ptr, ptr %7, align 8, !tbaa !41
  %121 = getelementptr inbounds nuw %"struct.(anonymous namespace)::pj_spilhaus_data", ptr %120, i32 0, i32 4
  %122 = load double, ptr %121, align 8, !tbaa !65
  %123 = load ptr, ptr %6, align 8, !tbaa !3
  %124 = getelementptr inbounds nuw %struct.PJconsts, ptr %123, i32 0, i32 66
  %125 = load double, ptr %124, align 8, !tbaa !83
  %126 = fmul double %122, %125
  store double %126, ptr %16, align 8, !tbaa !56
  %127 = getelementptr inbounds nuw %struct.PJ_XY, ptr %14, i32 0, i32 0
  %128 = load double, ptr %127, align 8, !tbaa !84
  %129 = load ptr, ptr %7, align 8, !tbaa !41
  %130 = getelementptr inbounds nuw %"struct.(anonymous namespace)::pj_spilhaus_data", ptr %129, i32 0, i32 5
  %131 = load double, ptr %130, align 8, !tbaa !58
  %132 = getelementptr inbounds nuw %struct.PJ_XY, ptr %14, i32 0, i32 1
  %133 = load double, ptr %132, align 8, !tbaa !86
  %134 = load ptr, ptr %7, align 8, !tbaa !41
  %135 = getelementptr inbounds nuw %"struct.(anonymous namespace)::pj_spilhaus_data", ptr %134, i32 0, i32 6
  %136 = load double, ptr %135, align 8, !tbaa !59
  %137 = fmul double %133, %136
  %138 = call double @llvm.fmuladd.f64(double %128, double %131, double %137)
  %139 = fneg double %138
  %140 = load double, ptr %16, align 8, !tbaa !56
  %141 = fmul double %139, %140
  %142 = getelementptr inbounds nuw %struct.PJ_XY, ptr %4, i32 0, i32 0
  store double %141, ptr %142, align 8, !tbaa !84
  %143 = getelementptr inbounds nuw %struct.PJ_XY, ptr %14, i32 0, i32 0
  %144 = load double, ptr %143, align 8, !tbaa !84
  %145 = load ptr, ptr %7, align 8, !tbaa !41
  %146 = getelementptr inbounds nuw %"struct.(anonymous namespace)::pj_spilhaus_data", ptr %145, i32 0, i32 6
  %147 = load double, ptr %146, align 8, !tbaa !59
  %148 = fneg double %147
  %149 = getelementptr inbounds nuw %struct.PJ_XY, ptr %14, i32 0, i32 1
  %150 = load double, ptr %149, align 8, !tbaa !86
  %151 = load ptr, ptr %7, align 8, !tbaa !41
  %152 = getelementptr inbounds nuw %"struct.(anonymous namespace)::pj_spilhaus_data", ptr %151, i32 0, i32 5
  %153 = load double, ptr %152, align 8, !tbaa !58
  %154 = fmul double %150, %153
  %155 = call double @llvm.fmuladd.f64(double %144, double %148, double %154)
  %156 = fneg double %155
  %157 = load double, ptr %16, align 8, !tbaa !56
  %158 = fmul double %156, %157
  %159 = getelementptr inbounds nuw %struct.PJ_XY, ptr %4, i32 0, i32 1
  store double %158, ptr %159, align 8, !tbaa !86
  call void @llvm.lifetime.end.p0(i64 8, ptr %16) #15
  call void @llvm.lifetime.end.p0(i64 16, ptr %14) #15
  call void @llvm.lifetime.end.p0(i64 16, ptr %13) #15
  call void @llvm.lifetime.end.p0(i64 8, ptr %12) #15
  call void @llvm.lifetime.end.p0(i64 8, ptr %11) #15
  call void @llvm.lifetime.end.p0(i64 8, ptr %10) #15
  call void @llvm.lifetime.end.p0(i64 8, ptr %9) #15
  call void @llvm.lifetime.end.p0(i64 8, ptr %8) #15
  call void @llvm.lifetime.end.p0(i64 8, ptr %7) #15
  %160 = load { double, double }, ptr %4, align 8
  ret { double, double } %160
}