; Function Attrs: mustprogress uwtable
define internal { double, double } @_ZL16spilhaus_forward5PJ_LPP8PJconsts(double %0, double %1, ptr noundef readonly captures(none) %2) #0 {
  %4 = getelementptr inbounds nuw i8, ptr %2, i64 88
  %5 = load ptr, ptr %4, align 8, !tbaa !41
  %6 = getelementptr inbounds nuw i8, ptr %2, i64 208
  %7 = load double, ptr %6, align 8, !tbaa !46
  %8 = tail call noundef double @_Z16pj_conformal_latdd(double noundef %1, double noundef %7)
  %9 = tail call double @cos(double noundef %8) #13, !tbaa !54
  %10 = tail call double @sin(double noundef %8) #13, !tbaa !54
  %11 = getelementptr inbounds nuw i8, ptr %5, i64 24
  %12 = load double, ptr %11, align 8, !tbaa !59
  %13 = fsub double %0, %12
  %14 = tail call double @cos(double noundef %13) #13, !tbaa !54
  %15 = tail call double @sin(double noundef %13) #13, !tbaa !54
  %16 = load ptr, ptr %2, align 8, !tbaa !45
  %17 = getelementptr inbounds nuw i8, ptr %5, i64 8
  %18 = load double, ptr %17, align 8, !tbaa !57
  %19 = load double, ptr %5, align 8, !tbaa !58
  %20 = fmul double %9, %19
  %21 = fneg double %14
  %22 = fmul double %20, %21
  %23 = tail call double @llvm.fmuladd.f64(double %18, double %10, double %22)
  %24 = tail call noundef double @_Z5aasinP6pj_ctxd(ptr noundef %16, double noundef %23)
  %25 = getelementptr inbounds nuw i8, ptr %5, i64 16
  %26 = load double, ptr %25, align 8, !tbaa !60
  %27 = fmul double %9, %15
  %28 = load double, ptr %17, align 8, !tbaa !57
  %29 = fmul double %9, %28
  %30 = load double, ptr %5, align 8, !tbaa !58
  %31 = fmul double %10, %30
  %32 = tail call double @llvm.fmuladd.f64(double %29, double %14, double %31)
  %33 = tail call double @atan2(double noundef %27, double noundef %32) #13, !tbaa !54
  %34 = fadd double %26, %33
  %35 = fcmp ogt double %34, 0x400921FB54442D18
  br i1 %35, label %.lr.ph, label %.preheader

.preheader:                                       ; preds = %.lr.ph, %3
  %.sroa.05.0.lcssa = phi double [ %34, %3 ], [ %37, %.lr.ph ]
  %36 = fcmp olt double %.sroa.05.0.lcssa, 0xC00921FB54442D18
  br i1 %36, label %.lr.ph43, label %._crit_edge

.lr.ph:                                           ; preds = %3, %.lr.ph
  %.sroa.05.041 = phi double [ %37, %.lr.ph ], [ %34, %3 ]
  %37 = fadd double %.sroa.05.041, 0xC01921FB54442D18
  %38 = fcmp ogt double %37, 0x400921FB54442D18
  br i1 %38, label %.lr.ph, label %.preheader, !llvm.loop !65

.lr.ph43:                                         ; preds = %.preheader, %.lr.ph43
  %.sroa.05.142 = phi double [ %39, %.lr.ph43 ], [ %.sroa.05.0.lcssa, %.preheader ]
  %39 = fadd double %.sroa.05.142, 0x401921FB54442D18
  %40 = fcmp olt double %39, 0xC00921FB54442D18
  br i1 %40, label %.lr.ph43, label %._crit_edge, !llvm.loop !67

._crit_edge:                                      ; preds = %.lr.ph43, %.preheader
  %.sroa.05.1.lcssa = phi double [ %.sroa.05.0.lcssa, %.preheader ], [ %39, %.lr.ph43 ]
  %41 = getelementptr inbounds nuw i8, ptr %5, i64 56
  %42 = load ptr, ptr %41, align 8, !tbaa !43
  %43 = getelementptr inbounds nuw i8, ptr %42, i64 104
  %44 = load ptr, ptr %43, align 8, !tbaa !63
  %45 = tail call { double, double } %44(double %.sroa.05.1.lcssa, double %24, ptr noundef %42)
  %46 = extractvalue { double, double } %45, 0
  %47 = extractvalue { double, double } %45, 1
  %48 = getelementptr inbounds nuw i8, ptr %5, i64 32
  %49 = load double, ptr %48, align 8, !tbaa !62
  %50 = getelementptr inbounds nuw i8, ptr %2, i64 488
  %51 = load double, ptr %50, align 8, !tbaa !68
  %52 = fmul double %49, %51
  %53 = getelementptr inbounds nuw i8, ptr %5, i64 40
  %54 = load double, ptr %53, align 8, !tbaa !55
  %55 = getelementptr inbounds nuw i8, ptr %5, i64 48
  %56 = load double, ptr %55, align 8, !tbaa !56
  %57 = fmul double %47, %56
  %58 = tail call double @llvm.fmuladd.f64(double %46, double %54, double %57)
  %59 = fneg double %58
  %60 = fmul double %52, %59
  %61 = fneg double %56
  %62 = fmul double %47, %54
  %63 = tail call double @llvm.fmuladd.f64(double %46, double %61, double %62)
  %64 = fneg double %63
  %65 = fmul double %52, %64
  %.fca.0.insert = insertvalue { double, double } poison, double %60, 0
  %.fca.1.insert = insertvalue { double, double } %.fca.0.insert, double %65, 1
  ret { double, double } %.fca.1.insert
}